(i__main__
LogFile
p0
(dp1
S'_installed_files'
p2
(dp3
S'../HltUtilities/HltAlgorithms/python'
p4
(dp5
S'../../../HltUtilities/HltAlgorithms/python/HltAlgorithms/__init__.py'
p6
S'../../../InstallArea/python/HltAlgorithms/__init__.py'
p7
ssS'../../../HltUtilities/HltAlgorithms/amd64_linux26/libHltAlgorithms.so'
p8
S'../../../InstallArea/amd64_linux26/lib/libHltAlgorithms.so'
p9
ssb.