(i__main__
LogFile
p0
(dp1
S'_installed_files'
p2
(dp3
S'../HltProcessor/HltConfig/python'
p4
(dp5
S'../../../HltProcessor/HltConfig/python/HltConfig/__init__.py'
p6
S'../../../InstallArea/python/HltConfig/__init__.py'
p7
ssS'../../../HltProcessor/HltConfig/amd64_linux26/libHltConfig.so'
p8
S'../../../InstallArea/amd64_linux26/lib/libHltConfig.so'
p9
ssb.