(i__main__
LogFile
p0
(dp1
S'_installed_files'
p2
(dp3
S'../../../HltProcessor/HltSteering/amd64_linux26/libHltSteering.so'
p4
S'../../../InstallArea/amd64_linux26/lib/libHltSteering.so'
p5
sS'../HltProcessor/HltSteering/python'
p6
(dp7
S'../../../HltProcessor/HltSteering/python/HltSteering/__init__.py'
p8
S'../../../InstallArea/python/HltSteering/__init__.py'
p9
sssb.