(i__main__
LogFile
p0
(dp1
S'_installed_files'
p2
(dp3
S'../../../HltProcessor/HltSteerData/amd64_linux26/libHltSteerData.so'
p4
S'../../../InstallArea/amd64_linux26/lib/libHltSteerData.so'
p5
sS'../HltProcessor/HltSteerData/python'
p6
(dp7
S'../../../HltProcessor/HltSteerData/python/HltSteerData/__init__.py'
p8
S'../../../InstallArea/python/HltSteerData/__init__.py'
p9
sssb.