(i__main__
LogFile
p0
(dp1
S'_installed_files'
p2
(dp3
S'../HltUtilities/HltStore/python'
p4
(dp5
S'../../../HltUtilities/HltStore/python/HltStore/__init__.py'
p6
S'../../../InstallArea/python/HltStore/__init__.py'
p7
ssS'../../../HltUtilities/HltStore/amd64_linux26/libHltStore.so'
p8
S'../../../InstallArea/amd64_linux26/lib/libHltStore.so'
p9
ssb.