(i__main__
LogFile
p0
(dp1
S'_installed_files'
p2
(dp3
S'../HltProcessor/HltResult/python'
p4
(dp5
S'../../../HltProcessor/HltResult/python/HltResult/__init__.py'
p6
S'../../../InstallArea/python/HltResult/__init__.py'
p7
ssS'../../../HltProcessor/HltResult/amd64_linux26/libHltResult.so'
p8
S'../../../InstallArea/amd64_linux26/lib/libHltResult.so'
p9
ssb.